; Function Attrs: inlinehint mustprogress norecurse uwtable
define internal fastcc noundef nonnull align 8 dereferenceable(8) ptr @_ZN2cvlsERSoRKNS_3MatE(ptr noundef nonnull returned align 8 dereferenceable(8) %0, ptr noundef nonnull align 8 dereferenceable(96) %1) unnamed_addr #9 personality ptr @__gxx_personality_v0 {
  %3 = alloca %"struct.cv::Ptr.31", align 8
  %4 = alloca %"struct.cv::Ptr.35", align 8
  call void @llvm.lifetime.start.p0(i64 16, ptr nonnull %4) #25
  call void @_ZN2cv9Formatter3getENS0_10FormatTypeE(ptr dead_on_unwind nonnull writable sret(%"struct.cv::Ptr.35") align 8 %4, i32 noundef 0)
  %5 = load ptr, ptr %4, align 8, !tbaa !257
  %6 = load ptr, ptr %5, align 8, !tbaa !34
  %7 = getelementptr inbounds nuw i8, ptr %6, i64 16
  %8 = load ptr, ptr %7, align 8
  invoke void %8(ptr dead_on_unwind nonnull writable sret(%"struct.cv::Ptr.31") align 8 %3, ptr noundef nonnull align 8 dereferenceable(8) %5, ptr noundef nonnull align 8 dereferenceable(96) %1)
          to label %9 unwind label %70

9:                                                ; preds = %2
  %10 = load ptr, ptr %3, align 8, !tbaa !260
  %11 = load ptr, ptr %10, align 8, !tbaa !34
  %12 = getelementptr inbounds nuw i8, ptr %11, i64 8
  %13 = load ptr, ptr %12, align 8
  invoke void %13(ptr noundef nonnull align 8 dereferenceable(8) %10)
          to label %.noexc unwind label %.loopexit.split-lp

.noexc:                                           ; preds = %9
  %14 = load ptr, ptr %3, align 8, !tbaa !260
  %15 = load ptr, ptr %14, align 8, !tbaa !34
  %16 = load ptr, ptr %15, align 8
  %17 = invoke noundef ptr %16(ptr noundef nonnull align 8 dereferenceable(8) %14)
          to label %.noexc5 unwind label %.loopexit.split-lp

.noexc5:                                          ; preds = %.noexc
  %.not4.i = icmp eq ptr %17, null
  br i1 %.not4.i, label %_ZN2cvlsERSoNS_3PtrINS_9FormattedEEE.exit, label %_ZStlsISt11char_traitsIcEERSt13basic_ostreamIcT_ES5_PKc.exit.i

_ZStlsISt11char_traitsIcEERSt13basic_ostreamIcT_ES5_PKc.exit.i: ; preds = %.noexc5, %.noexc7
  %.05.i = phi ptr [ %23, %.noexc7 ], [ %17, %.noexc5 ]
  %18 = call noundef i64 @strlen(ptr noundef nonnull dereferenceable(1) %.05.i) #25
  %19 = invoke noundef nonnull align 8 dereferenceable(8) ptr @_ZSt16__ostream_insertIcSt11char_traitsIcEERSt13basic_ostreamIT_T0_ES6_PKS3_l(ptr noundef nonnull align 8 dereferenceable(8) %0, ptr noundef nonnull %.05.i, i64 noundef %18)
          to label %.noexc6 unwind label %.loopexit

.noexc6:                                          ; preds = %_ZStlsISt11char_traitsIcEERSt13basic_ostreamIcT_ES5_PKc.exit.i
  %20 = load ptr, ptr %3, align 8, !tbaa !260
  %21 = load ptr, ptr %20, align 8, !tbaa !34
  %22 = load ptr, ptr %21, align 8
  %23 = invoke noundef ptr %22(ptr noundef nonnull align 8 dereferenceable(8) %20)
          to label %.noexc7 unwind label %.loopexit

.noexc7:                                          ; preds = %.noexc6
  %.not.i = icmp eq ptr %23, null
  br i1 %.not.i, label %_ZN2cvlsERSoNS_3PtrINS_9FormattedEEE.exit, label %_ZStlsISt11char_traitsIcEERSt13basic_ostreamIcT_ES5_PKc.exit.i, !llvm.loop !263

_ZN2cvlsERSoNS_3PtrINS_9FormattedEEE.exit:        ; preds = %.noexc7, %.noexc5
  %24 = getelementptr inbounds nuw i8, ptr %3, i64 8
  %25 = load ptr, ptr %24, align 8, !tbaa !264
  %.not.i.i = icmp eq ptr %25, null
  br i1 %.not.i.i, label %_ZNSt12__shared_ptrIN2cv9FormattedELN9__gnu_cxx12_Lock_policyE2EED2Ev.exit, label %26

26:                                               ; preds = %_ZN2cvlsERSoNS_3PtrINS_9FormattedEEE.exit
  %27 = getelementptr inbounds nuw i8, ptr %25, i64 8
  %28 = load atomic i64, ptr %27 acquire, align 8
  %29 = icmp eq i64 %28, 4294967297
  %30 = trunc i64 %28 to i32
  br i1 %29, label %31, label %39

31:                                               ; preds = %26
  store i32 0, ptr %27, align 8, !tbaa !265
  %32 = getelementptr inbounds nuw i8, ptr %25, i64 12
  store i32 0, ptr %32, align 4, !tbaa !267
  %33 = load ptr, ptr %25, align 8, !tbaa !34
  %34 = getelementptr inbounds nuw i8, ptr %33, i64 16
  %35 = load ptr, ptr %34, align 8
  call void %35(ptr noundef nonnull align 8 dereferenceable(16) %25) #25
  %36 = load ptr, ptr %25, align 8, !tbaa !34
  %37 = getelementptr inbounds nuw i8, ptr %36, i64 24
  %38 = load ptr, ptr %37, align 8
  call void %38(ptr noundef nonnull align 8 dereferenceable(16) %25) #25
  br label %_ZNSt12__shared_ptrIN2cv9FormattedELN9__gnu_cxx12_Lock_policyE2EED2Ev.exit

39:                                               ; preds = %26
  %40 = load i8, ptr @__libc_single_threaded, align 1, !tbaa !20
  %.not.i.i.i = icmp eq i8 %40, 0
  br i1 %.not.i.i.i, label %43, label %41

41:                                               ; preds = %39
  %42 = add nsw i32 %30, -1
  store i32 %42, ptr %27, align 4, !tbaa !107
  br label %_ZN9__gnu_cxx27__exchange_and_add_dispatchEPii.exit.i.i.i

43:                                               ; preds = %39
  %44 = atomicrmw volatile add ptr %27, i32 -1 acq_rel, align 4
  br label %_ZN9__gnu_cxx27__exchange_and_add_dispatchEPii.exit.i.i.i

_ZN9__gnu_cxx27__exchange_and_add_dispatchEPii.exit.i.i.i: ; preds = %43, %41
  %.0.i.i.i.i = phi i32 [ %30, %41 ], [ %44, %43 ]
  %45 = icmp eq i32 %.0.i.i.i.i, 1
  br i1 %45, label %46, label %_ZNSt12__shared_ptrIN2cv9FormattedELN9__gnu_cxx12_Lock_policyE2EED2Ev.exit, !prof !80

46:                                               ; preds = %_ZN9__gnu_cxx27__exchange_and_add_dispatchEPii.exit.i.i.i
  call void @_ZNSt16_Sp_counted_baseILN9__gnu_cxx12_Lock_policyE2EE24_M_release_last_use_coldEv(ptr noundef nonnull align 8 dereferenceable(16) %25) #25
  br label %_ZNSt12__shared_ptrIN2cv9FormattedELN9__gnu_cxx12_Lock_policyE2EED2Ev.exit

_ZNSt12__shared_ptrIN2cv9FormattedELN9__gnu_cxx12_Lock_policyE2EED2Ev.exit: ; preds = %_ZN2cvlsERSoNS_3PtrINS_9FormattedEEE.exit, %31, %_ZN9__gnu_cxx27__exchange_and_add_dispatchEPii.exit.i.i.i, %46
  %47 = getelementptr inbounds nuw i8, ptr %4, i64 8
  %48 = load ptr, ptr %47, align 8, !tbaa !264
  %.not.i.i8 = icmp eq ptr %48, null
  br i1 %.not.i.i8, label %_ZNSt12__shared_ptrIN2cv9FormatterELN9__gnu_cxx12_Lock_policyE2EED2Ev.exit, label %49

49:                                               ; preds = %_ZNSt12__shared_ptrIN2cv9FormattedELN9__gnu_cxx12_Lock_policyE2EED2Ev.exit
  %50 = getelementptr inbounds nuw i8, ptr %48, i64 8
  %51 = load atomic i64, ptr %50 acquire, align 8
  %52 = icmp eq i64 %51, 4294967297
  %53 = trunc i64 %51 to i32
  br i1 %52, label %54, label %62

54:                                               ; preds = %49
  store i32 0, ptr %50, align 8, !tbaa !265
  %55 = getelementptr inbounds nuw i8, ptr %48, i64 12
  store i32 0, ptr %55, align 4, !tbaa !267
  %56 = load ptr, ptr %48, align 8, !tbaa !34
  %57 = getelementptr inbounds nuw i8, ptr %56, i64 16
  %58 = load ptr, ptr %57, align 8
  call void %58(ptr noundef nonnull align 8 dereferenceable(16) %48) #25
  %59 = load ptr, ptr %48, align 8, !tbaa !34
  %60 = getelementptr inbounds nuw i8, ptr %59, i64 24
  %61 = load ptr, ptr %60, align 8
  call void %61(ptr noundef nonnull align 8 dereferenceable(16) %48) #25
  br label %_ZNSt12__shared_ptrIN2cv9FormatterELN9__gnu_cxx12_Lock_policyE2EED2Ev.exit

62:                                               ; preds = %49
  %63 = load i8, ptr @__libc_single_threaded, align 1, !tbaa !20
  %.not.i.i.i9 = icmp eq i8 %63, 0
  br i1 %.not.i.i.i9, label %66, label %64

64:                                               ; preds = %62
  %65 = add nsw i32 %53, -1
  store i32 %65, ptr %50, align 4, !tbaa !107
  br label %_ZN9__gnu_cxx27__exchange_and_add_dispatchEPii.exit.i.i.i10

66:                                               ; preds = %62
  %67 = atomicrmw volatile add ptr %50, i32 -1 acq_rel, align 4
  br label %_ZN9__gnu_cxx27__exchange_and_add_dispatchEPii.exit.i.i.i10

_ZN9__gnu_cxx27__exchange_and_add_dispatchEPii.exit.i.i.i10: ; preds = %66, %64
  %.0.i.i.i.i11 = phi i32 [ %53, %64 ], [ %67, %66 ]
  %68 = icmp eq i32 %.0.i.i.i.i11, 1
  br i1 %68, label %69, label %_ZNSt12__shared_ptrIN2cv9FormatterELN9__gnu_cxx12_Lock_policyE2EED2Ev.exit, !prof !80

69:                                               ; preds = %_ZN9__gnu_cxx27__exchange_and_add_dispatchEPii.exit.i.i.i10
  call void @_ZNSt16_Sp_counted_baseILN9__gnu_cxx12_Lock_policyE2EE24_M_release_last_use_coldEv(ptr noundef nonnull align 8 dereferenceable(16) %48) #25
  br label %_ZNSt12__shared_ptrIN2cv9FormatterELN9__gnu_cxx12_Lock_policyE2EED2Ev.exit

_ZNSt12__shared_ptrIN2cv9FormatterELN9__gnu_cxx12_Lock_policyE2EED2Ev.exit: ; preds = %_ZNSt12__shared_ptrIN2cv9FormattedELN9__gnu_cxx12_Lock_policyE2EED2Ev.exit, %54, %_ZN9__gnu_cxx27__exchange_and_add_dispatchEPii.exit.i.i.i10, %69
  call void @llvm.lifetime.end.p0(i64 16, ptr nonnull %4) #25
  ret ptr %0

70:                                               ; preds = %2
  %71 = landingpad { ptr, i32 }
          cleanup
  br label %73

.loopexit:                                        ; preds = %_ZStlsISt11char_traitsIcEERSt13basic_ostreamIcT_ES5_PKc.exit.i, %.noexc6
  %lpad.loopexit = landingpad { ptr, i32 }
          cleanup
  br label %72

.loopexit.split-lp:                               ; preds = %9, %.noexc
  %lpad.loopexit.split-lp = landingpad { ptr, i32 }
          cleanup
  br label %72

72:                                               ; preds = %.loopexit.split-lp, %.loopexit
  %lpad.phi = phi { ptr, i32 } [ %lpad.loopexit, %.loopexit ], [ %lpad.loopexit.split-lp, %.loopexit.split-lp ]
  call void @_ZNSt12__shared_ptrIN2cv9FormattedELN9__gnu_cxx12_Lock_policyE2EED2Ev(ptr noundef nonnull align 8 dereferenceable(16) %3) #25
  br label %73

73:                                               ; preds = %72, %70
  %.pn = phi { ptr, i32 } [ %lpad.phi, %72 ], [ %71, %70 ]
  call void @_ZNSt12__shared_ptrIN2cv9FormatterELN9__gnu_cxx12_Lock_policyE2EED2Ev(ptr noundef nonnull align 8 dereferenceable(16) %4) #25
  call void @llvm.lifetime.end.p0(i64 16, ptr nonnull %4) #25
  resume { ptr, i32 } %.pn
}